; Function Attrs: mustprogress nofree norecurse nosync nounwind willreturn memory(argmem: readwrite) uwtable
define void @png_set_invert_alpha(ptr noalias noundef %0) local_unnamed_addr #0 {
  %2 = icmp eq ptr %0, null
  br i1 %2, label %7, label %3

3:                                                ; preds = %1
  %4 = getelementptr inbounds i8, ptr %0, i64 308
  %5 = load i32, ptr %4, align 4
  %6 = or i32 %5, 524288
  store i32 %6, ptr %4, align 4
  br label %7

7:                                                ; preds = %1, %3
  ret void
}